target datalayout = "e-m:e-p270:32:32-p271:32:32-p272:64:64-i64:64-i128:128-f80:128-n8:16:32:64-S128"
target triple = "x86_64-pc-linux-gnu"

@.str.13 = private unnamed_addr constant [8 x i8] c"TV_flat\00", align 1
@.str.14 = private unnamed_addr constant [6 x i8] c"TV_ne\00", align 1
@.str.15 = private unnamed_addr constant [6 x i8] c"TV_en\00", align 1
@.str.16 = private unnamed_addr constant [7 x i8] c"TV_bfs\00", align 1
@.str.17 = private unnamed_addr constant [7 x i8] c"TV_dfs\00", align 1
@.str.18 = private unnamed_addr constant [7 x i8] c"TV_fwd\00", align 1
@.str.19 = private unnamed_addr constant [7 x i8] c"TV_rev\00", align 1
@.str.20 = private unnamed_addr constant [11 x i8] c"TV_postdfs\00", align 1
@.str.21 = private unnamed_addr constant [11 x i8] c"TV_postfwd\00", align 1
@.str.22 = private unnamed_addr constant [11 x i8] c"TV_postrev\00", align 1
@.str.23 = private unnamed_addr constant [14 x i8] c"TV_prepostdfs\00", align 1
@.str.24 = private unnamed_addr constant [14 x i8] c"TV_prepostfwd\00", align 1
@.str.25 = private unnamed_addr constant [14 x i8] c"TV_prepostrev\00", align 1
@.str.26 = private unnamed_addr constant [40 x i8] c"Unexpected value %lld for type tvtype_t\00", align 1

; Function Attrs: nounwind uwtable
define internal ptr @tvtypeToStr(i64 noundef %0) #0 {
  %2 = alloca i64, align 8
  %3 = alloca ptr, align 8
  store i64 %0, ptr %2, align 8, !tbaa !99
  call void @llvm.lifetime.start.p0(i64 8, ptr %3) #16
  store ptr null, ptr %3, align 8, !tbaa !7
  %4 = load i64, ptr %2, align 8, !tbaa !99
  switch i64 %4, label %18 [
    i64 0, label %5
    i64 1, label %6
    i64 2, label %7
    i64 3, label %8
    i64 4, label %9
    i64 5, label %10
    i64 6, label %11
    i64 7, label %12
    i64 8, label %13
    i64 9, label %14
    i64 10, label %15
    i64 11, label %16
    i64 12, label %17
  ]

5:                                                ; preds = %1
  store ptr @.str.13, ptr %3, align 8, !tbaa !7
  br label %20

6:                                                ; preds = %1
  store ptr @.str.14, ptr %3, align 8, !tbaa !7
  br label %20

7:                                                ; preds = %1
  store ptr @.str.15, ptr %3, align 8, !tbaa !7
  br label %20

8:                                                ; preds = %1
  store ptr @.str.16, ptr %3, align 8, !tbaa !7
  br label %20

9:                                                ; preds = %1
  store ptr @.str.17, ptr %3, align 8, !tbaa !7
  br label %20

10:                                               ; preds = %1
  store ptr @.str.18, ptr %3, align 8, !tbaa !7
  br label %20

11:                                               ; preds = %1
  store ptr @.str.19, ptr %3, align 8, !tbaa !7
  br label %20

12:                                               ; preds = %1
  store ptr @.str.20, ptr %3, align 8, !tbaa !7
  br label %20

13:                                               ; preds = %1
  store ptr @.str.21, ptr %3, align 8, !tbaa !7
  br label %20

14:                                               ; preds = %1
  store ptr @.str.22, ptr %3, align 8, !tbaa !7
  br label %20

15:                                               ; preds = %1
  store ptr @.str.23, ptr %3, align 8, !tbaa !7
  br label %20

16:                                               ; preds = %1
  store ptr @.str.24, ptr %3, align 8, !tbaa !7
  br label %20

17:                                               ; preds = %1
  store ptr @.str.25, ptr %3, align 8, !tbaa !7
  br label %20

18:                                               ; preds = %1
  %19 = load i64, ptr %2, align 8, !tbaa !99
  call void (ptr, ...) @exerror(ptr noundef @.str.26, i64 noundef %19)
  br label %20

20:                                               ; preds = %18, %17, %16, %15, %14, %13, %12, %11, %10, %9, %8, %7, %6, %5
  %21 = load ptr, ptr %3, align 8, !tbaa !7
  call void @llvm.lifetime.end.p0(i64 8, ptr %3) #16
  ret ptr %21
}