; Function Attrs: nounwind uwtable
define internal fastcc noundef ptr @tvtypeToStr(i64 noundef %0) unnamed_addr #0 {
  %2 = icmp ult i64 %0, 13
  br i1 %2, label %switch.lookup, label %3

3:                                                ; preds = %1
  tail call void (ptr, ...) @exerror(ptr noundef nonnull @.str.26, i64 noundef %0) #25
  br label %4

switch.lookup:                                    ; preds = %1
  %switch.gep = getelementptr inbounds nuw [13 x ptr], ptr @switch.table.tvtypeToStr, i64 0, i64 %0
  %switch.load = load ptr, ptr %switch.gep, align 8
  br label %4

4:                                                ; preds = %switch.lookup, %3
  %.0 = phi ptr [ null, %3 ], [ %switch.load, %switch.lookup ]
  ret ptr %.0
}